
auth:     file format elf32-i386


Disassembly of section .init:

08048394 <_init>:
 8048394:	53                   	push   ebx
 8048395:	83 ec 08             	sub    esp,0x8
 8048398:	e8 e3 00 00 00       	call   8048480 <__x86.get_pc_thunk.bx>
 804839d:	81 c3 63 1c 00 00    	add    ebx,0x1c63
 80483a3:	8b 83 fc ff ff ff    	mov    eax,DWORD PTR [ebx-0x4]
 80483a9:	85 c0                	test   eax,eax
 80483ab:	74 05                	je     80483b2 <_init+0x1e>
 80483ad:	e8 8e 00 00 00       	call   8048440 <__isoc99_scanf@plt+0x10>
 80483b2:	83 c4 08             	add    esp,0x8
 80483b5:	5b                   	pop    ebx
 80483b6:	c3                   	ret    

Disassembly of section .plt:

080483c0 <puts@plt-0x10>:
 80483c0:	ff 35 04 a0 04 08    	push   DWORD PTR ds:0x804a004
 80483c6:	ff 25 08 a0 04 08    	jmp    DWORD PTR ds:0x804a008
 80483cc:	00 00                	add    BYTE PTR [eax],al
 80483ce:	00 00                	add    BYTE PTR [eax],al

080483d0 <puts@plt>:
 80483d0:	ff 25 0c a0 04 08    	jmp    DWORD PTR ds:0x804a00c
 80483d6:	68 00 00 00 00       	push   0x0
 80483db:	e9 e0 ff ff ff       	jmp    80483c0 <_init+0x2c>

080483e0 <system@plt>:
 80483e0:	ff 25 10 a0 04 08    	jmp    DWORD PTR ds:0x804a010
 80483e6:	68 08 00 00 00       	push   0x8
 80483eb:	e9 d0 ff ff ff       	jmp    80483c0 <_init+0x2c>

080483f0 <exit@plt>:
 80483f0:	ff 25 14 a0 04 08    	jmp    DWORD PTR ds:0x804a014
 80483f6:	68 10 00 00 00       	push   0x10
 80483fb:	e9 c0 ff ff ff       	jmp    80483c0 <_init+0x2c>

08048400 <__libc_start_main@plt>:
 8048400:	ff 25 18 a0 04 08    	jmp    DWORD PTR ds:0x804a018
 8048406:	68 18 00 00 00       	push   0x18
 804840b:	e9 b0 ff ff ff       	jmp    80483c0 <_init+0x2c>

08048410 <setvbuf@plt>:
 8048410:	ff 25 1c a0 04 08    	jmp    DWORD PTR ds:0x804a01c
 8048416:	68 20 00 00 00       	push   0x20
 804841b:	e9 a0 ff ff ff       	jmp    80483c0 <_init+0x2c>

08048420 <sprintf@plt>:
 8048420:	ff 25 20 a0 04 08    	jmp    DWORD PTR ds:0x804a020
 8048426:	68 28 00 00 00       	push   0x28
 804842b:	e9 90 ff ff ff       	jmp    80483c0 <_init+0x2c>

08048430 <__isoc99_scanf@plt>:
 8048430:	ff 25 24 a0 04 08    	jmp    DWORD PTR ds:0x804a024
 8048436:	68 30 00 00 00       	push   0x30
 804843b:	e9 80 ff ff ff       	jmp    80483c0 <_init+0x2c>

Disassembly of section .plt.got:

08048440 <.plt.got>:
 8048440:	ff 25 fc 9f 04 08    	jmp    DWORD PTR ds:0x8049ffc
 8048446:	66 90                	xchg   ax,ax

Disassembly of section .text:

08048450 <_start>:
 8048450:	31 ed                	xor    ebp,ebp
 8048452:	5e                   	pop    esi
 8048453:	89 e1                	mov    ecx,esp
 8048455:	83 e4 f0             	and    esp,0xfffffff0
 8048458:	50                   	push   eax
 8048459:	54                   	push   esp
 804845a:	52                   	push   edx
 804845b:	68 d0 86 04 08       	push   0x80486d0
 8048460:	68 70 86 04 08       	push   0x8048670
 8048465:	51                   	push   ecx
 8048466:	56                   	push   esi
 8048467:	68 64 85 04 08       	push   0x8048564
 804846c:	e8 8f ff ff ff       	call   8048400 <__libc_start_main@plt>
 8048471:	f4                   	hlt    
 8048472:	66 90                	xchg   ax,ax
 8048474:	66 90                	xchg   ax,ax
 8048476:	66 90                	xchg   ax,ax
 8048478:	66 90                	xchg   ax,ax
 804847a:	66 90                	xchg   ax,ax
 804847c:	66 90                	xchg   ax,ax
 804847e:	66 90                	xchg   ax,ax

08048480 <__x86.get_pc_thunk.bx>:
 8048480:	8b 1c 24             	mov    ebx,DWORD PTR [esp]
 8048483:	c3                   	ret    
 8048484:	66 90                	xchg   ax,ax
 8048486:	66 90                	xchg   ax,ax
 8048488:	66 90                	xchg   ax,ax
 804848a:	66 90                	xchg   ax,ax
 804848c:	66 90                	xchg   ax,ax
 804848e:	66 90                	xchg   ax,ax

08048490 <deregister_tm_clones>:
 8048490:	b8 33 a0 04 08       	mov    eax,0x804a033
 8048495:	2d 30 a0 04 08       	sub    eax,0x804a030
 804849a:	83 f8 06             	cmp    eax,0x6
 804849d:	76 1a                	jbe    80484b9 <deregister_tm_clones+0x29>
 804849f:	b8 00 00 00 00       	mov    eax,0x0
 80484a4:	85 c0                	test   eax,eax
 80484a6:	74 11                	je     80484b9 <deregister_tm_clones+0x29>
 80484a8:	55                   	push   ebp
 80484a9:	89 e5                	mov    ebp,esp
 80484ab:	83 ec 14             	sub    esp,0x14
 80484ae:	68 30 a0 04 08       	push   0x804a030
 80484b3:	ff d0                	call   eax
 80484b5:	83 c4 10             	add    esp,0x10
 80484b8:	c9                   	leave  
 80484b9:	f3 c3                	repz ret 
 80484bb:	90                   	nop
 80484bc:	8d 74 26 00          	lea    esi,[esi+eiz*1+0x0]

080484c0 <register_tm_clones>:
 80484c0:	b8 30 a0 04 08       	mov    eax,0x804a030
 80484c5:	2d 30 a0 04 08       	sub    eax,0x804a030
 80484ca:	c1 f8 02             	sar    eax,0x2
 80484cd:	89 c2                	mov    edx,eax
 80484cf:	c1 ea 1f             	shr    edx,0x1f
 80484d2:	01 d0                	add    eax,edx
 80484d4:	d1 f8                	sar    eax,1
 80484d6:	74 1b                	je     80484f3 <register_tm_clones+0x33>
 80484d8:	ba 00 00 00 00       	mov    edx,0x0
 80484dd:	85 d2                	test   edx,edx
 80484df:	74 12                	je     80484f3 <register_tm_clones+0x33>
 80484e1:	55                   	push   ebp
 80484e2:	89 e5                	mov    ebp,esp
 80484e4:	83 ec 10             	sub    esp,0x10
 80484e7:	50                   	push   eax
 80484e8:	68 30 a0 04 08       	push   0x804a030
 80484ed:	ff d2                	call   edx
 80484ef:	83 c4 10             	add    esp,0x10
 80484f2:	c9                   	leave  
 80484f3:	f3 c3                	repz ret 
 80484f5:	8d 74 26 00          	lea    esi,[esi+eiz*1+0x0]
 80484f9:	8d bc 27 00 00 00 00 	lea    edi,[edi+eiz*1+0x0]

08048500 <__do_global_dtors_aux>:
 8048500:	80 3d 34 a0 04 08 00 	cmp    BYTE PTR ds:0x804a034,0x0
 8048507:	75 13                	jne    804851c <__do_global_dtors_aux+0x1c>
 8048509:	55                   	push   ebp
 804850a:	89 e5                	mov    ebp,esp
 804850c:	83 ec 08             	sub    esp,0x8
 804850f:	e8 7c ff ff ff       	call   8048490 <deregister_tm_clones>
 8048514:	c6 05 34 a0 04 08 01 	mov    BYTE PTR ds:0x804a034,0x1
 804851b:	c9                   	leave  
 804851c:	f3 c3                	repz ret 
 804851e:	66 90                	xchg   ax,ax

08048520 <frame_dummy>:
 8048520:	b8 10 9f 04 08       	mov    eax,0x8049f10
 8048525:	8b 10                	mov    edx,DWORD PTR [eax]
 8048527:	85 d2                	test   edx,edx
 8048529:	75 05                	jne    8048530 <frame_dummy+0x10>
 804852b:	eb 93                	jmp    80484c0 <register_tm_clones>
 804852d:	8d 76 00             	lea    esi,[esi+0x0]
 8048530:	ba 00 00 00 00       	mov    edx,0x0
 8048535:	85 d2                	test   edx,edx
 8048537:	74 f2                	je     804852b <frame_dummy+0xb>
 8048539:	55                   	push   ebp
 804853a:	89 e5                	mov    ebp,esp
 804853c:	83 ec 14             	sub    esp,0x14
 804853f:	50                   	push   eax
 8048540:	ff d2                	call   edx
 8048542:	83 c4 10             	add    esp,0x10
 8048545:	c9                   	leave  
 8048546:	e9 75 ff ff ff       	jmp    80484c0 <register_tm_clones>

0804854b <win>:
 804854b:	55                   	push   ebp
 804854c:	89 e5                	mov    ebp,esp
 804854e:	83 ec 08             	sub    esp,0x8
 8048551:	83 ec 0c             	sub    esp,0xc
 8048554:	68 f0 86 04 08       	push   0x80486f0
 8048559:	e8 82 fe ff ff       	call   80483e0 <system@plt>
 804855e:	83 c4 10             	add    esp,0x10
 8048561:	90                   	nop
 8048562:	c9                   	leave  
 8048563:	c3                   	ret    

08048564 <main>:
 8048564:	8d 4c 24 04          	lea    ecx,[esp+0x4]
 8048568:	83 e4 f0             	and    esp,0xfffffff0
 804856b:	ff 71 fc             	push   DWORD PTR [ecx-0x4]
 804856e:	55                   	push   ebp
 804856f:	89 e5                	mov    ebp,esp
 8048571:	51                   	push   ecx
 8048572:	81 ec 24 01 00 00    	sub    esp,0x124
 8048578:	89 c8                	mov    eax,ecx
 804857a:	8b 40 04             	mov    eax,DWORD PTR [eax+0x4]
 804857d:	89 85 e4 fe ff ff    	mov    DWORD PTR [ebp-0x11c],eax
 8048583:	65 a1 14 00 00 00    	mov    eax,gs:0x14
 8048589:	89 45 f4             	mov    DWORD PTR [ebp-0xc],eax
 804858c:	31 c0                	xor    eax,eax
 804858e:	a1 30 a0 04 08       	mov    eax,ds:0x804a030
 8048593:	6a 00                	push   0x0
 8048595:	6a 02                	push   0x2
 8048597:	6a 00                	push   0x0
 8048599:	50                   	push   eax
 804859a:	e8 71 fe ff ff       	call   8048410 <setvbuf@plt>
 804859f:	83 c4 10             	add    esp,0x10
 80485a2:	83 ec 0c             	sub    esp,0xc
 80485a5:	68 f8 86 04 08       	push   0x80486f8
 80485aa:	e8 21 fe ff ff       	call   80483d0 <puts@plt>
 80485af:	83 c4 10             	add    esp,0x10
 80485b2:	83 ec 08             	sub    esp,0x8
 80485b5:	8d 85 ec fe ff ff    	lea    eax,[ebp-0x114]
 80485bb:	50                   	push   eax
 80485bc:	68 58 87 04 08       	push   0x8048758
 80485c1:	e8 6a fe ff ff       	call   8048430 <__isoc99_scanf@plt>
 80485c6:	83 c4 10             	add    esp,0x10
 80485c9:	8b 85 ec fe ff ff    	mov    eax,DWORD PTR [ebp-0x114]
 80485cf:	83 ec 04             	sub    esp,0x4
 80485d2:	50                   	push   eax
 80485d3:	68 5c 87 04 08       	push   0x804875c
 80485d8:	8d 85 f4 fe ff ff    	lea    eax,[ebp-0x10c]
 80485de:	50                   	push   eax
 80485df:	e8 3c fe ff ff       	call   8048420 <sprintf@plt>
 80485e4:	83 c4 10             	add    esp,0x10
 80485e7:	83 ec 0c             	sub    esp,0xc
 80485ea:	8d 85 f4 fe ff ff    	lea    eax,[ebp-0x10c]
 80485f0:	50                   	push   eax
 80485f1:	e8 da fd ff ff       	call   80483d0 <puts@plt>
 80485f6:	83 c4 10             	add    esp,0x10
 80485f9:	83 ec 08             	sub    esp,0x8
 80485fc:	8d 85 f0 fe ff ff    	lea    eax,[ebp-0x110]
 8048602:	50                   	push   eax
 8048603:	68 58 87 04 08       	push   0x8048758
 8048608:	e8 23 fe ff ff       	call   8048430 <__isoc99_scanf@plt>
 804860d:	83 c4 10             	add    esp,0x10
 8048610:	8b 95 ec fe ff ff    	mov    edx,DWORD PTR [ebp-0x114]
 8048616:	8b 85 f0 fe ff ff    	mov    eax,DWORD PTR [ebp-0x110]
 804861c:	52                   	push   edx
 804861d:	50                   	push   eax
 804861e:	68 91 87 04 08       	push   0x8048791
 8048623:	8d 85 f4 fe ff ff    	lea    eax,[ebp-0x10c]
 8048629:	50                   	push   eax
 804862a:	e8 f1 fd ff ff       	call   8048420 <sprintf@plt>
 804862f:	83 c4 10             	add    esp,0x10
 8048632:	83 ec 0c             	sub    esp,0xc
 8048635:	8d 85 f4 fe ff ff    	lea    eax,[ebp-0x10c]
 804863b:	50                   	push   eax
 804863c:	e8 8f fd ff ff       	call   80483d0 <puts@plt>
 8048641:	83 c4 10             	add    esp,0x10
 8048644:	8b 85 ec fe ff ff    	mov    eax,DWORD PTR [ebp-0x114]
 804864a:	89 c2                	mov    edx,eax
 804864c:	8b 85 f0 fe ff ff    	mov    eax,DWORD PTR [ebp-0x110]
 8048652:	89 02                	mov    DWORD PTR [edx],eax
 8048654:	83 ec 0c             	sub    esp,0xc
 8048657:	68 ac 87 04 08       	push   0x80487ac
 804865c:	e8 6f fd ff ff       	call   80483d0 <puts@plt>
 8048661:	83 c4 10             	add    esp,0x10
 8048664:	83 ec 0c             	sub    esp,0xc
 8048667:	6a 01                	push   0x1
 8048669:	e8 82 fd ff ff       	call   80483f0 <exit@plt>
 804866e:	66 90                	xchg   ax,ax

08048670 <__libc_csu_init>:
 8048670:	55                   	push   ebp
 8048671:	57                   	push   edi
 8048672:	56                   	push   esi
 8048673:	53                   	push   ebx
 8048674:	e8 07 fe ff ff       	call   8048480 <__x86.get_pc_thunk.bx>
 8048679:	81 c3 87 19 00 00    	add    ebx,0x1987
 804867f:	83 ec 0c             	sub    esp,0xc
 8048682:	8b 6c 24 20          	mov    ebp,DWORD PTR [esp+0x20]
 8048686:	8d b3 0c ff ff ff    	lea    esi,[ebx-0xf4]
 804868c:	e8 03 fd ff ff       	call   8048394 <_init>
 8048691:	8d 83 08 ff ff ff    	lea    eax,[ebx-0xf8]
 8048697:	29 c6                	sub    esi,eax
 8048699:	c1 fe 02             	sar    esi,0x2
 804869c:	85 f6                	test   esi,esi
 804869e:	74 25                	je     80486c5 <__libc_csu_init+0x55>
 80486a0:	31 ff                	xor    edi,edi
 80486a2:	8d b6 00 00 00 00    	lea    esi,[esi+0x0]
 80486a8:	83 ec 04             	sub    esp,0x4
 80486ab:	ff 74 24 2c          	push   DWORD PTR [esp+0x2c]
 80486af:	ff 74 24 2c          	push   DWORD PTR [esp+0x2c]
 80486b3:	55                   	push   ebp
 80486b4:	ff 94 bb 08 ff ff ff 	call   DWORD PTR [ebx+edi*4-0xf8]
 80486bb:	83 c7 01             	add    edi,0x1
 80486be:	83 c4 10             	add    esp,0x10
 80486c1:	39 f7                	cmp    edi,esi
 80486c3:	75 e3                	jne    80486a8 <__libc_csu_init+0x38>
 80486c5:	83 c4 0c             	add    esp,0xc
 80486c8:	5b                   	pop    ebx
 80486c9:	5e                   	pop    esi
 80486ca:	5f                   	pop    edi
 80486cb:	5d                   	pop    ebp
 80486cc:	c3                   	ret    
 80486cd:	8d 76 00             	lea    esi,[esi+0x0]

080486d0 <__libc_csu_fini>:
 80486d0:	f3 c3                	repz ret 

Disassembly of section .fini:

080486d4 <_fini>:
 80486d4:	53                   	push   ebx
 80486d5:	83 ec 08             	sub    esp,0x8
 80486d8:	e8 a3 fd ff ff       	call   8048480 <__x86.get_pc_thunk.bx>
 80486dd:	81 c3 23 19 00 00    	add    ebx,0x1923
 80486e3:	83 c4 08             	add    esp,0x8
 80486e6:	5b                   	pop    ebx
 80486e7:	c3                   	ret    
